target datalayout = "e-m:e-p270:32:32-p271:32:32-p272:64:64-i64:64-i128:128-f80:128-n8:16:32:64-S128"
target triple = "x86_64-pc-linux-gnu"

%struct.SDL_WindowData = type { ptr, ptr, ptr, ptr, ptr, ptr, ptr, %union.anon, i32, i32, i32, i32, ptr, ptr, ptr, ptr, ptr, ptr, ptr, ptr, ptr, ptr, ptr, ptr, ptr, ptr, %struct.SDL_AtomicInt, ptr, i32, ptr, double, ptr, i32, i32, i32, i32, %struct.anon.3, %struct.anon.4, %struct.anon.5, %struct.anon.6, %struct.anon.7, %struct.anon.8, %struct.anon.9, i32, i32, i32, i64, i32, i32, i8, i8, i8, i8, i8, i8, i8, i8, i8, i8, i8, i8, i8, i8, i32, %struct.wl_list }
%union.anon = type { %struct.anon }
%struct.anon = type { ptr, %union.anon.0, i8 }
%union.anon.0 = type { %struct.anon.2 }
%struct.anon.2 = type { ptr, ptr }
%struct.SDL_AtomicInt = type { i32 }
%struct.anon.3 = type { double, double }
%struct.anon.4 = type { i32, i32, i32, i32 }
%struct.anon.5 = type { i32, i32, i32, i32 }
%struct.anon.6 = type { i32, i32 }
%struct.anon.7 = type { i32, i32 }
%struct.anon.8 = type { i32, i32 }
%struct.anon.9 = type { i32, i32, i8 }
%struct.wl_list = type { ptr, ptr }
%struct.SDL_Window = type { i32, ptr, ptr, i32, i32, i32, i32, i32, i32, i32, i32, float, float, i32, i32, i64, i64, float, i8, i8, i32, i32, %struct.SDL_Rect, %struct.SDL_Rect, %struct.SDL_Rect, i8, i8, i8, %struct.SDL_DisplayMode, %struct.SDL_DisplayMode, %struct.SDL_HDROutputProperties, float, ptr, i8, i8, i8, i8, i8, i8, i8, i8, i8, i32, i32, i32, i32, %struct.SDL_Rect, i32, i8, %struct.SDL_Rect, i32, %struct.SDL_Rect, ptr, ptr, i32, float, i32, i32, ptr, ptr, ptr, ptr, ptr, ptr, ptr, ptr, ptr }
%struct.SDL_DisplayMode = type { i32, i32, i32, i32, float, float, i32, i32, ptr }
%struct.SDL_HDROutputProperties = type { float, float }
%struct.SDL_Rect = type { i32, i32, i32, i32 }
%struct.anon.1 = type { ptr }

@WAYLAND_wl_proxy_get_version = external global ptr, align 8
@WAYLAND_wl_proxy_marshal_flags = external global ptr, align 8

; Function Attrs: inlinehint nounwind uwtable
define internal void @xdg_toplevel_set_parent(ptr noundef %0, ptr noundef %1) #4 {
  %3 = alloca ptr, align 8
  %4 = alloca ptr, align 8
  store ptr %0, ptr %3, align 8
  store ptr %1, ptr %4, align 8
  %5 = load ptr, ptr @WAYLAND_wl_proxy_marshal_flags, align 8
  %6 = load ptr, ptr %3, align 8
  %7 = load ptr, ptr @WAYLAND_wl_proxy_get_version, align 8
  %8 = load ptr, ptr %3, align 8
  %9 = call i32 %7(ptr noundef %8)
  %10 = load ptr, ptr %4, align 8
  %11 = call ptr (ptr, i32, ptr, i32, i32, ...) %5(ptr noundef %6, i32 noundef 1, ptr noundef null, i32 noundef %9, i32 noundef 0, ptr noundef %10)
  ret void
}

; Function Attrs: nounwind uwtable
define internal ptr @GetToplevelForWindow(ptr noundef %0) #0 {
  %2 = alloca ptr, align 8
  %3 = alloca ptr, align 8
  store ptr %0, ptr %3, align 8
  %4 = load ptr, ptr %3, align 8
  %5 = icmp ne ptr %4, null
  br i1 %5, label %6, label %25

6:                                                ; preds = %1
  %7 = load ptr, ptr %3, align 8
  %8 = getelementptr inbounds nuw %struct.SDL_WindowData, ptr %7, i32 0, i32 8
  %9 = load i32, ptr %8, align 8
  %10 = icmp eq i32 %9, 1
  br i1 %10, label %11, label %24

11:                                               ; preds = %6
  %12 = load ptr, ptr %3, align 8
  %13 = getelementptr inbounds nuw %struct.SDL_WindowData, ptr %12, i32 0, i32 7
  %14 = getelementptr inbounds nuw %struct.anon, ptr %13, i32 0, i32 1
  %15 = getelementptr inbounds nuw %struct.anon.1, ptr %14, i32 0, i32 0
  %16 = load ptr, ptr %15, align 8
  %17 = icmp ne ptr %16, null
  br i1 %17, label %18, label %24

18:                                               ; preds = %11
  %19 = load ptr, ptr %3, align 8
  %20 = getelementptr inbounds nuw %struct.SDL_WindowData, ptr %19, i32 0, i32 7
  %21 = getelementptr inbounds nuw %struct.anon, ptr %20, i32 0, i32 1
  %22 = getelementptr inbounds nuw %struct.anon.1, ptr %21, i32 0, i32 0
  %23 = load ptr, ptr %22, align 8
  store ptr %23, ptr %2, align 8
  br label %26

24:                                               ; preds = %11, %6
  br label %25

25:                                               ; preds = %24, %1
  store ptr null, ptr %2, align 8
  br label %26

26:                                               ; preds = %25, %18
  %27 = load ptr, ptr %2, align 8
  ret ptr %27
}

; Function Attrs: nounwind uwtable
define hidden zeroext i1 @Wayland_SetWindowParent(ptr noundef %0, ptr noundef %1, ptr noundef %2) #0 {
  %4 = alloca i1, align 1
  %5 = alloca ptr, align 8
  %6 = alloca ptr, align 8
  %7 = alloca ptr, align 8
  %8 = alloca ptr, align 8
  %9 = alloca ptr, align 8
  %10 = alloca i32, align 4
  %11 = alloca ptr, align 8
  %12 = alloca ptr, align 8
  store ptr %0, ptr %5, align 8
  store ptr %1, ptr %6, align 8
  store ptr %2, ptr %7, align 8
  call void @llvm.lifetime.start.p0(i64 8, ptr %8) #10
  %13 = load ptr, ptr %6, align 8
  %14 = getelementptr inbounds nuw %struct.SDL_Window, ptr %13, i32 0, i32 59
  %15 = load ptr, ptr %14, align 8
  store ptr %15, ptr %8, align 8
  call void @llvm.lifetime.start.p0(i64 8, ptr %9) #10
  %16 = load ptr, ptr %7, align 8
  %17 = icmp ne ptr %16, null
  br i1 %17, label %18, label %22

18:                                               ; preds = %3
  %19 = load ptr, ptr %7, align 8
  %20 = getelementptr inbounds nuw %struct.SDL_Window, ptr %19, i32 0, i32 59
  %21 = load ptr, ptr %20, align 8
  br label %23

22:                                               ; preds = %3
  br label %23

23:                                               ; preds = %22, %18
  %24 = phi ptr [ %21, %18 ], [ null, %22 ]
  store ptr %24, ptr %9, align 8
  %25 = load ptr, ptr %8, align 8
  %26 = getelementptr inbounds nuw %struct.SDL_WindowData, ptr %25, i32 0, i32 61
  store i8 0, ptr %26, align 4
  %27 = load ptr, ptr %9, align 8
  %28 = icmp ne ptr %27, null
  br i1 %28, label %29, label %37

29:                                               ; preds = %23
  %30 = load ptr, ptr %9, align 8
  %31 = getelementptr inbounds nuw %struct.SDL_WindowData, ptr %30, i32 0, i32 9
  %32 = load i32, ptr %31, align 4
  %33 = icmp ne i32 %32, 4
  br i1 %33, label %34, label %37

34:                                               ; preds = %29
  %35 = load ptr, ptr %8, align 8
  %36 = getelementptr inbounds nuw %struct.SDL_WindowData, ptr %35, i32 0, i32 61
  store i8 1, ptr %36, align 4
  store i1 true, ptr %4, align 1
  store i32 1, ptr %10, align 4
  br label %48

37:                                               ; preds = %29, %23
  call void @llvm.lifetime.start.p0(i64 8, ptr %11) #10
  %38 = load ptr, ptr %8, align 8
  %39 = call ptr @GetToplevelForWindow(ptr noundef %38)
  store ptr %39, ptr %11, align 8
  call void @llvm.lifetime.start.p0(i64 8, ptr %12) #10
  %40 = load ptr, ptr %9, align 8
  %41 = call ptr @GetToplevelForWindow(ptr noundef %40)
  store ptr %41, ptr %12, align 8
  %42 = load ptr, ptr %11, align 8
  %43 = icmp ne ptr %42, null
  br i1 %43, label %44, label %47

44:                                               ; preds = %37
  %45 = load ptr, ptr %11, align 8
  %46 = load ptr, ptr %12, align 8
  call void @xdg_toplevel_set_parent(ptr noundef %45, ptr noundef %46)
  br label %47

47:                                               ; preds = %44, %37
  store i1 true, ptr %4, align 1
  store i32 1, ptr %10, align 4
  call void @llvm.lifetime.end.p0(i64 8, ptr %12) #10
  call void @llvm.lifetime.end.p0(i64 8, ptr %11) #10
  br label %48

48:                                               ; preds = %47, %34
  call void @llvm.lifetime.end.p0(i64 8, ptr %9) #10
  call void @llvm.lifetime.end.p0(i64 8, ptr %8) #10
  %49 = load i1, ptr %4, align 1
  ret i1 %49
}