; Function Attrs: nounwind uwtable
define hidden noundef zeroext i1 @Wayland_SetWindowParent(ptr noundef readnone captures(none) %0, ptr noundef readonly captures(none) %1, ptr noundef readonly captures(address_is_null) %2) local_unnamed_addr #0 {
  %4 = getelementptr inbounds nuw i8, ptr %1, i64 392
  %5 = load ptr, ptr %4, align 8
  %.not = icmp eq ptr %2, null
  br i1 %.not, label %.thread, label %7

.thread:                                          ; preds = %3
  %6 = getelementptr inbounds nuw i8, ptr %5, i64 404
  store i8 0, ptr %6, align 4
  br label %.split

7:                                                ; preds = %3
  %8 = getelementptr inbounds nuw i8, ptr %2, i64 392
  %9 = load ptr, ptr %8, align 8
  %10 = getelementptr inbounds nuw i8, ptr %5, i64 404
  store i8 0, ptr %10, align 4
  %.not16 = icmp eq ptr %9, null
  br i1 %.not16, label %.split, label %17

.split:                                           ; preds = %7, %.thread
  %11 = getelementptr inbounds nuw i8, ptr %5, i64 88
  %12 = load i32, ptr %11, align 8
  %13 = icmp eq i32 %12, 1
  br i1 %13, label %14, label %GetToplevelForWindow.exit.thread

14:                                               ; preds = %.split
  %15 = getelementptr inbounds nuw i8, ptr %5, i64 64
  %16 = load ptr, ptr %15, align 8
  %.not7.i = icmp eq ptr %16, null
  br i1 %.not7.i, label %GetToplevelForWindow.exit.thread, label %GetToplevelForWindow.exit.thread31

17:                                               ; preds = %7
  %18 = getelementptr inbounds nuw i8, ptr %9, i64 92
  %19 = load i32, ptr %18, align 4
  %.not17 = icmp eq i32 %19, 4
  br i1 %.not17, label %.split13, label %34

.split13:                                         ; preds = %17
  %20 = getelementptr inbounds nuw i8, ptr %5, i64 88
  %21 = load i32, ptr %20, align 8
  %22 = icmp eq i32 %21, 1
  br i1 %22, label %23, label %26

23:                                               ; preds = %.split13
  %24 = getelementptr inbounds nuw i8, ptr %5, i64 64
  %25 = load ptr, ptr %24, align 8
  %.not7.i22 = icmp eq ptr %25, null
  br i1 %.not7.i22, label %26, label %GetToplevelForWindow.exit23

26:                                               ; preds = %23, %.split13
  br label %GetToplevelForWindow.exit23

GetToplevelForWindow.exit23:                      ; preds = %26, %23
  %.0.i21 = phi ptr [ null, %26 ], [ %25, %23 ]
  %27 = getelementptr inbounds nuw i8, ptr %9, i64 88
  %28 = load i32, ptr %27, align 8
  %29 = icmp eq i32 %28, 1
  br i1 %29, label %30, label %33

30:                                               ; preds = %GetToplevelForWindow.exit23
  %31 = getelementptr inbounds nuw i8, ptr %9, i64 64
  %32 = load ptr, ptr %31, align 8
  %.not7.i26 = icmp eq ptr %32, null
  br i1 %.not7.i26, label %33, label %GetToplevelForWindow.exit

33:                                               ; preds = %30, %GetToplevelForWindow.exit23
  br label %GetToplevelForWindow.exit

34:                                               ; preds = %17
  store i8 1, ptr %10, align 4
  br label %GetToplevelForWindow.exit.thread

GetToplevelForWindow.exit:                        ; preds = %33, %30
  %phi.call = phi ptr [ null, %33 ], [ %32, %30 ]
  %.not18 = icmp eq ptr %.0.i21, null
  br i1 %.not18, label %GetToplevelForWindow.exit.thread, label %GetToplevelForWindow.exit.thread31

GetToplevelForWindow.exit.thread31:               ; preds = %14, %GetToplevelForWindow.exit
  %phi.call34 = phi ptr [ %phi.call, %GetToplevelForWindow.exit ], [ null, %14 ]
  %35 = phi ptr [ %.0.i21, %GetToplevelForWindow.exit ], [ %16, %14 ]
  %36 = load ptr, ptr @WAYLAND_wl_proxy_marshal_flags, align 8
  %37 = load ptr, ptr @WAYLAND_wl_proxy_get_version, align 8
  %38 = tail call i32 %37(ptr noundef nonnull %35) #15
  %39 = tail call ptr (ptr, i32, ptr, i32, i32, ...) %36(ptr noundef nonnull %35, i32 noundef 1, ptr noundef null, i32 noundef %38, i32 noundef 0, ptr noundef %phi.call34) #15
  br label %GetToplevelForWindow.exit.thread

GetToplevelForWindow.exit.thread:                 ; preds = %14, %.split, %GetToplevelForWindow.exit, %GetToplevelForWindow.exit.thread31, %34
  ret i1 true
}